target datalayout = "e-m:e-p270:32:32-p271:32:32-p272:64:64-i64:64-i128:128-f80:128-n8:16:32:64-S128"
target triple = "x86_64-pc-linux-gnu"

%"class.std::_Rb_tree" = type { %"struct.std::_Rb_tree<pxrInternal_v0_24__pxrReserved__::UsdSkelSkeleton, std::pair<const pxrInternal_v0_24__pxrReserved__::UsdSkelSkeleton, pxrInternal_v0_24__pxrReserved__::VtArray<pxrInternal_v0_24__pxrReserved__::UsdSkelSkinningQuery>>, std::_Select1st<std::pair<const pxrInternal_v0_24__pxrReserved__::UsdSkelSkeleton, pxrInternal_v0_24__pxrReserved__::VtArray<pxrInternal_v0_24__pxrReserved__::UsdSkelSkinningQuery>>>, pxrInternal_v0_24__pxrReserved__::(anonymous namespace)::_CompareSkels>::_Rb_tree_impl" }
%"struct.std::_Rb_tree<pxrInternal_v0_24__pxrReserved__::UsdSkelSkeleton, std::pair<const pxrInternal_v0_24__pxrReserved__::UsdSkelSkeleton, pxrInternal_v0_24__pxrReserved__::VtArray<pxrInternal_v0_24__pxrReserved__::UsdSkelSkinningQuery>>, std::_Select1st<std::pair<const pxrInternal_v0_24__pxrReserved__::UsdSkelSkeleton, pxrInternal_v0_24__pxrReserved__::VtArray<pxrInternal_v0_24__pxrReserved__::UsdSkelSkinningQuery>>>, pxrInternal_v0_24__pxrReserved__::(anonymous namespace)::_CompareSkels>::_Rb_tree_impl" = type { [8 x i8], %"struct.std::_Rb_tree_header" }
%"struct.std::_Rb_tree_header" = type { %"struct.std::_Rb_tree_node_base", i64 }
%"struct.std::_Rb_tree_node_base" = type { i32, ptr, ptr, ptr }
%"struct.std::_Rb_tree_node" = type { %"struct.std::_Rb_tree_node_base", %"struct.__gnu_cxx::__aligned_membuf" }
%"struct.__gnu_cxx::__aligned_membuf" = type { [64 x i8] }

; Function Attrs: mustprogress nounwind uwtable
define linkonce_odr noundef ptr @_ZN9__gnu_cxx16__aligned_membufISt4pairIKN32pxrInternal_v0_24__pxrReserved__15UsdSkelSkeletonENS2_7VtArrayINS2_20UsdSkelSkinningQueryEEEEE7_M_addrEv(ptr noundef nonnull align 8 dereferenceable(64) %0) #3 comdat align 2 {
  %2 = alloca ptr, align 8
  store ptr %0, ptr %2, align 8
  %3 = load ptr, ptr %2, align 8
  %4 = getelementptr inbounds nuw %"struct.__gnu_cxx::__aligned_membuf", ptr %3, i32 0, i32 0
  ret ptr %4
}

; Function Attrs: mustprogress nounwind uwtable
define linkonce_odr void @_ZNSt15__new_allocatorISt13_Rb_tree_nodeISt4pairIKN32pxrInternal_v0_24__pxrReserved__15UsdSkelSkeletonENS2_7VtArrayINS2_20UsdSkelSkinningQueryEEEEEE10deallocateEPS9_m(ptr noundef nonnull align 1 dereferenceable(1) %0, ptr noundef %1, i64 noundef %2) #3 comdat align 2 {
  %4 = alloca ptr, align 8
  %5 = alloca ptr, align 8
  %6 = alloca i64, align 8
  store ptr %0, ptr %4, align 8
  store ptr %1, ptr %5, align 8
  store i64 %2, ptr %6, align 8
  %7 = load ptr, ptr %5, align 8
  %8 = load i64, ptr %6, align 8
  %9 = mul i64 %8, 96
  call void @_ZdlPvm(ptr noundef %7, i64 noundef %9) #14
  ret void
}

; Function Attrs: mustprogress nounwind uwtable
define linkonce_odr void @_ZNSt15__new_allocatorISt13_Rb_tree_nodeISt4pairIKN32pxrInternal_v0_24__pxrReserved__15UsdSkelSkeletonENS2_7VtArrayINS2_20UsdSkelSkinningQueryEEEEEE7destroyIS8_EEvPT_(ptr noundef nonnull align 1 dereferenceable(1) %0, ptr noundef %1) #3 comdat align 2 {
  %3 = alloca ptr, align 8
  %4 = alloca ptr, align 8
  store ptr %0, ptr %3, align 8
  store ptr %1, ptr %4, align 8
  %5 = load ptr, ptr %4, align 8
  call void @_ZNSt4pairIKN32pxrInternal_v0_24__pxrReserved__15UsdSkelSkeletonENS0_7VtArrayINS0_20UsdSkelSkinningQueryEEEED2Ev(ptr noundef nonnull align 8 dereferenceable(64) %5) #15
  ret void
}

; Function Attrs: mustprogress nounwind uwtable
define linkonce_odr noundef ptr @_ZN9__gnu_cxx16__aligned_membufISt4pairIKN32pxrInternal_v0_24__pxrReserved__15UsdSkelSkeletonENS2_7VtArrayINS2_20UsdSkelSkinningQueryEEEEE6_M_ptrEv(ptr noundef nonnull align 8 dereferenceable(64) %0) #3 comdat align 2 {
  %2 = alloca ptr, align 8
  store ptr %0, ptr %2, align 8
  %3 = load ptr, ptr %2, align 8
  %4 = call noundef ptr @_ZN9__gnu_cxx16__aligned_membufISt4pairIKN32pxrInternal_v0_24__pxrReserved__15UsdSkelSkeletonENS2_7VtArrayINS2_20UsdSkelSkinningQueryEEEEE7_M_addrEv(ptr noundef nonnull align 8 dereferenceable(64) %3) #15
  ret ptr %4
}

; Function Attrs: mustprogress uwtable
define linkonce_odr void @_ZNSt16allocator_traitsISaISt13_Rb_tree_nodeISt4pairIKN32pxrInternal_v0_24__pxrReserved__15UsdSkelSkeletonENS2_7VtArrayINS2_20UsdSkelSkinningQueryEEEEEEE10deallocateERSA_PS9_m(ptr noundef nonnull align 1 dereferenceable(1) %0, ptr noundef %1, i64 noundef %2) #0 comdat align 2 {
  %4 = alloca ptr, align 8
  %5 = alloca ptr, align 8
  %6 = alloca i64, align 8
  store ptr %0, ptr %4, align 8
  store ptr %1, ptr %5, align 8
  store i64 %2, ptr %6, align 8
  %7 = load ptr, ptr %4, align 8
  %8 = load ptr, ptr %5, align 8
  %9 = load i64, ptr %6, align 8
  call void @_ZNSt15__new_allocatorISt13_Rb_tree_nodeISt4pairIKN32pxrInternal_v0_24__pxrReserved__15UsdSkelSkeletonENS2_7VtArrayINS2_20UsdSkelSkinningQueryEEEEEE10deallocateEPS9_m(ptr noundef nonnull align 1 dereferenceable(1) %7, ptr noundef %8, i64 noundef %9)
  ret void
}

; Function Attrs: noreturn nounwind uwtable
define linkonce_odr hidden void @__clang_call_terminate(ptr noundef %0) #7 comdat {
  %2 = call ptr @__cxa_begin_catch(ptr %0) #15
  call void @_ZSt9terminatev() #16
  unreachable
}

; Function Attrs: mustprogress nounwind uwtable
define linkonce_odr void @_ZNSt16allocator_traitsISaISt13_Rb_tree_nodeISt4pairIKN32pxrInternal_v0_24__pxrReserved__15UsdSkelSkeletonENS2_7VtArrayINS2_20UsdSkelSkinningQueryEEEEEEE7destroyIS8_EEvRSA_PT_(ptr noundef nonnull align 1 dereferenceable(1) %0, ptr noundef %1) #3 comdat align 2 {
  %3 = alloca ptr, align 8
  %4 = alloca ptr, align 8
  store ptr %0, ptr %3, align 8
  store ptr %1, ptr %4, align 8
  %5 = load ptr, ptr %3, align 8
  %6 = load ptr, ptr %4, align 8
  call void @_ZNSt15__new_allocatorISt13_Rb_tree_nodeISt4pairIKN32pxrInternal_v0_24__pxrReserved__15UsdSkelSkeletonENS2_7VtArrayINS2_20UsdSkelSkinningQueryEEEEEE7destroyIS8_EEvPT_(ptr noundef nonnull align 1 dereferenceable(1) %5, ptr noundef %6) #15
  ret void
}

; Function Attrs: mustprogress nounwind uwtable
define linkonce_odr noundef ptr @_ZNSt13_Rb_tree_nodeISt4pairIKN32pxrInternal_v0_24__pxrReserved__15UsdSkelSkeletonENS1_7VtArrayINS1_20UsdSkelSkinningQueryEEEEE9_M_valptrEv(ptr noundef nonnull align 8 dereferenceable(96) %0) #3 comdat align 2 {
  %2 = alloca ptr, align 8
  store ptr %0, ptr %2, align 8
  %3 = load ptr, ptr %2, align 8
  %4 = getelementptr inbounds nuw %"struct.std::_Rb_tree_node", ptr %3, i32 0, i32 1
  %5 = call noundef ptr @_ZN9__gnu_cxx16__aligned_membufISt4pairIKN32pxrInternal_v0_24__pxrReserved__15UsdSkelSkeletonENS2_7VtArrayINS2_20UsdSkelSkinningQueryEEEEE6_M_ptrEv(ptr noundef nonnull align 8 dereferenceable(64) %4) #15
  ret ptr %5
}

; Function Attrs: mustprogress nounwind uwtable
define internal noundef nonnull align 1 dereferenceable(1) ptr @_ZNSt8_Rb_treeIN32pxrInternal_v0_24__pxrReserved__15UsdSkelSkeletonESt4pairIKS1_NS0_7VtArrayINS0_20UsdSkelSkinningQueryEEEESt10_Select1stIS7_ENS0_12_GLOBAL__N_113_CompareSkelsESaIS7_EE21_M_get_Node_allocatorEv(ptr noundef nonnull align 8 dereferenceable(48) %0) #3 align 2 {
  %2 = alloca ptr, align 8
  store ptr %0, ptr %2, align 8
  %3 = load ptr, ptr %2, align 8
  %4 = getelementptr inbounds nuw %"class.std::_Rb_tree", ptr %3, i32 0, i32 0
  ret ptr %4
}

; Function Attrs: mustprogress nounwind uwtable
define internal void @_ZNSt8_Rb_treeIN32pxrInternal_v0_24__pxrReserved__15UsdSkelSkeletonESt4pairIKS1_NS0_7VtArrayINS0_20UsdSkelSkinningQueryEEEESt10_Select1stIS7_ENS0_12_GLOBAL__N_113_CompareSkelsESaIS7_EE11_M_put_nodeEPSt13_Rb_tree_nodeIS7_E(ptr noundef nonnull align 8 dereferenceable(48) %0, ptr noundef %1) #3 align 2 personality ptr @__gxx_personality_v0 {
  %3 = alloca ptr, align 8
  %4 = alloca ptr, align 8
  store ptr %0, ptr %3, align 8
  store ptr %1, ptr %4, align 8
  %5 = load ptr, ptr %3, align 8
  %6 = call noundef nonnull align 1 dereferenceable(1) ptr @_ZNSt8_Rb_treeIN32pxrInternal_v0_24__pxrReserved__15UsdSkelSkeletonESt4pairIKS1_NS0_7VtArrayINS0_20UsdSkelSkinningQueryEEEESt10_Select1stIS7_ENS0_12_GLOBAL__N_113_CompareSkelsESaIS7_EE21_M_get_Node_allocatorEv(ptr noundef nonnull align 8 dereferenceable(48) %5) #15
  %7 = load ptr, ptr %4, align 8
  invoke void @_ZNSt16allocator_traitsISaISt13_Rb_tree_nodeISt4pairIKN32pxrInternal_v0_24__pxrReserved__15UsdSkelSkeletonENS2_7VtArrayINS2_20UsdSkelSkinningQueryEEEEEEE10deallocateERSA_PS9_m(ptr noundef nonnull align 1 dereferenceable(1) %6, ptr noundef %7, i64 noundef 1)
          to label %8 unwind label %9

8:                                                ; preds = %2
  ret void

9:                                                ; preds = %2
  %10 = landingpad { ptr, i32 }
          catch ptr null
  %11 = extractvalue { ptr, i32 } %10, 0
  call void @__clang_call_terminate(ptr %11) #16
  unreachable
}

; Function Attrs: mustprogress nounwind uwtable
define internal void @_ZNSt8_Rb_treeIN32pxrInternal_v0_24__pxrReserved__15UsdSkelSkeletonESt4pairIKS1_NS0_7VtArrayINS0_20UsdSkelSkinningQueryEEEESt10_Select1stIS7_ENS0_12_GLOBAL__N_113_CompareSkelsESaIS7_EE15_M_destroy_nodeEPSt13_Rb_tree_nodeIS7_E(ptr noundef nonnull align 8 dereferenceable(48) %0, ptr noundef %1) #3 align 2 personality ptr @__gxx_personality_v0 {
  %3 = alloca ptr, align 8
  %4 = alloca ptr, align 8
  store ptr %0, ptr %3, align 8
  store ptr %1, ptr %4, align 8
  %5 = load ptr, ptr %3, align 8
  %6 = call noundef nonnull align 1 dereferenceable(1) ptr @_ZNSt8_Rb_treeIN32pxrInternal_v0_24__pxrReserved__15UsdSkelSkeletonESt4pairIKS1_NS0_7VtArrayINS0_20UsdSkelSkinningQueryEEEESt10_Select1stIS7_ENS0_12_GLOBAL__N_113_CompareSkelsESaIS7_EE21_M_get_Node_allocatorEv(ptr noundef nonnull align 8 dereferenceable(48) %5) #15
  %7 = load ptr, ptr %4, align 8
  %8 = invoke noundef ptr @_ZNSt13_Rb_tree_nodeISt4pairIKN32pxrInternal_v0_24__pxrReserved__15UsdSkelSkeletonENS1_7VtArrayINS1_20UsdSkelSkinningQueryEEEEE9_M_valptrEv(ptr noundef nonnull align 8 dereferenceable(96) %7)
          to label %9 unwind label %10

9:                                                ; preds = %2
  call void @_ZNSt16allocator_traitsISaISt13_Rb_tree_nodeISt4pairIKN32pxrInternal_v0_24__pxrReserved__15UsdSkelSkeletonENS2_7VtArrayINS2_20UsdSkelSkinningQueryEEEEEEE7destroyIS8_EEvRSA_PT_(ptr noundef nonnull align 1 dereferenceable(1) %6, ptr noundef %8) #15
  ret void

10:                                               ; preds = %2
  %11 = landingpad { ptr, i32 }
          catch ptr null
  %12 = extractvalue { ptr, i32 } %11, 0
  call void @__clang_call_terminate(ptr %12) #16
  unreachable
}

; Function Attrs: mustprogress nounwind uwtable
define internal void @_ZNSt8_Rb_treeIN32pxrInternal_v0_24__pxrReserved__15UsdSkelSkeletonESt4pairIKS1_NS0_7VtArrayINS0_20UsdSkelSkinningQueryEEEESt10_Select1stIS7_ENS0_12_GLOBAL__N_113_CompareSkelsESaIS7_EE12_M_drop_nodeEPSt13_Rb_tree_nodeIS7_E(ptr noundef nonnull align 8 dereferenceable(48) %0, ptr noundef %1) #3 align 2 {
  %3 = alloca ptr, align 8
  %4 = alloca ptr, align 8
  store ptr %0, ptr %3, align 8
  store ptr %1, ptr %4, align 8
  %5 = load ptr, ptr %3, align 8
  %6 = load ptr, ptr %4, align 8
  call void @_ZNSt8_Rb_treeIN32pxrInternal_v0_24__pxrReserved__15UsdSkelSkeletonESt4pairIKS1_NS0_7VtArrayINS0_20UsdSkelSkinningQueryEEEESt10_Select1stIS7_ENS0_12_GLOBAL__N_113_CompareSkelsESaIS7_EE15_M_destroy_nodeEPSt13_Rb_tree_nodeIS7_E(ptr noundef nonnull align 8 dereferenceable(48) %5, ptr noundef %6) #15
  %7 = load ptr, ptr %4, align 8
  call void @_ZNSt8_Rb_treeIN32pxrInternal_v0_24__pxrReserved__15UsdSkelSkeletonESt4pairIKS1_NS0_7VtArrayINS0_20UsdSkelSkinningQueryEEEESt10_Select1stIS7_ENS0_12_GLOBAL__N_113_CompareSkelsESaIS7_EE11_M_put_nodeEPSt13_Rb_tree_nodeIS7_E(ptr noundef nonnull align 8 dereferenceable(48) %5, ptr noundef %7) #15
  ret void
}

; Function Attrs: mustprogress nounwind uwtable
define internal noundef ptr @_ZNSt8_Rb_treeIN32pxrInternal_v0_24__pxrReserved__15UsdSkelSkeletonESt4pairIKS1_NS0_7VtArrayINS0_20UsdSkelSkinningQueryEEEESt10_Select1stIS7_ENS0_12_GLOBAL__N_113_CompareSkelsESaIS7_EE7_S_leftEPSt18_Rb_tree_node_base(ptr noundef %0) #3 align 2 {
  %2 = alloca ptr, align 8
  store ptr %0, ptr %2, align 8
  %3 = load ptr, ptr %2, align 8
  %4 = getelementptr inbounds nuw %"struct.std::_Rb_tree_node_base", ptr %3, i32 0, i32 2
  %5 = load ptr, ptr %4, align 8
  ret ptr %5
}

; Function Attrs: mustprogress nounwind uwtable
define internal noundef ptr @_ZNSt8_Rb_treeIN32pxrInternal_v0_24__pxrReserved__15UsdSkelSkeletonESt4pairIKS1_NS0_7VtArrayINS0_20UsdSkelSkinningQueryEEEESt10_Select1stIS7_ENS0_12_GLOBAL__N_113_CompareSkelsESaIS7_EE8_S_rightEPSt18_Rb_tree_node_base(ptr noundef %0) #3 align 2 {
  %2 = alloca ptr, align 8
  store ptr %0, ptr %2, align 8
  %3 = load ptr, ptr %2, align 8
  %4 = getelementptr inbounds nuw %"struct.std::_Rb_tree_node_base", ptr %3, i32 0, i32 3
  %5 = load ptr, ptr %4, align 8
  ret ptr %5
}

; Function Attrs: mustprogress uwtable
define internal void @_ZNSt8_Rb_treeIN32pxrInternal_v0_24__pxrReserved__15UsdSkelSkeletonESt4pairIKS1_NS0_7VtArrayINS0_20UsdSkelSkinningQueryEEEESt10_Select1stIS7_ENS0_12_GLOBAL__N_113_CompareSkelsESaIS7_EE8_M_eraseEPSt13_Rb_tree_nodeIS7_E(ptr noundef nonnull align 8 dereferenceable(48) %0, ptr noundef %1) #0 align 2 {
  %3 = alloca ptr, align 8
  %4 = alloca ptr, align 8
  %5 = alloca ptr, align 8
  store ptr %0, ptr %3, align 8
  store ptr %1, ptr %4, align 8
  %6 = load ptr, ptr %3, align 8
  br label %7

7:                                                ; preds = %10, %2
  %8 = load ptr, ptr %4, align 8
  %9 = icmp ne ptr %8, null
  br i1 %9, label %10, label %17

10:                                               ; preds = %7
  %11 = load ptr, ptr %4, align 8
  %12 = call noundef ptr @_ZNSt8_Rb_treeIN32pxrInternal_v0_24__pxrReserved__15UsdSkelSkeletonESt4pairIKS1_NS0_7VtArrayINS0_20UsdSkelSkinningQueryEEEESt10_Select1stIS7_ENS0_12_GLOBAL__N_113_CompareSkelsESaIS7_EE8_S_rightEPSt18_Rb_tree_node_base(ptr noundef %11) #15
  call void @_ZNSt8_Rb_treeIN32pxrInternal_v0_24__pxrReserved__15UsdSkelSkeletonESt4pairIKS1_NS0_7VtArrayINS0_20UsdSkelSkinningQueryEEEESt10_Select1stIS7_ENS0_12_GLOBAL__N_113_CompareSkelsESaIS7_EE8_M_eraseEPSt13_Rb_tree_nodeIS7_E(ptr noundef nonnull align 8 dereferenceable(48) %6, ptr noundef %12)
  %13 = load ptr, ptr %4, align 8
  %14 = call noundef ptr @_ZNSt8_Rb_treeIN32pxrInternal_v0_24__pxrReserved__15UsdSkelSkeletonESt4pairIKS1_NS0_7VtArrayINS0_20UsdSkelSkinningQueryEEEESt10_Select1stIS7_ENS0_12_GLOBAL__N_113_CompareSkelsESaIS7_EE7_S_leftEPSt18_Rb_tree_node_base(ptr noundef %13) #15
  store ptr %14, ptr %5, align 8
  %15 = load ptr, ptr %4, align 8
  call void @_ZNSt8_Rb_treeIN32pxrInternal_v0_24__pxrReserved__15UsdSkelSkeletonESt4pairIKS1_NS0_7VtArrayINS0_20UsdSkelSkinningQueryEEEESt10_Select1stIS7_ENS0_12_GLOBAL__N_113_CompareSkelsESaIS7_EE12_M_drop_nodeEPSt13_Rb_tree_nodeIS7_E(ptr noundef nonnull align 8 dereferenceable(48) %6, ptr noundef %15) #15
  %16 = load ptr, ptr %5, align 8
  store ptr %16, ptr %4, align 8
  br label %7, !llvm.loop !29

17:                                               ; preds = %7
  ret void
}